target datalayout = "e-m:e-p270:32:32-p271:32:32-p272:64:64-i64:64-i128:128-f80:128-n8:16:32:64-S128"
target triple = "x86_64-pc-linux-gnu"

%"class.glslang::HlslTokenStream" = type <{ ptr, %"struct.glslang::HlslToken", ptr, %"class.glslang::TVector", %"class.glslang::TVector.0", %"class.glslang::TVector.4", [2 x %"struct.glslang::HlslToken"], i32, [4 x i8], [2 x %"struct.glslang::HlslToken"], i32, [4 x i8] }>
%"struct.glslang::HlslToken" = type { %"struct.glslang::TSourceLoc", i32, %union.anon }
%"struct.glslang::TSourceLoc" = type { ptr, i32, i32, i32 }
%union.anon = type { ptr }
%"class.glslang::TVector" = type { %"class.std::vector" }
%"class.std::vector" = type { %"struct.std::_Vector_base" }
%"struct.std::_Vector_base" = type { %"struct.std::_Vector_base<const glslang::TVector<glslang::HlslToken> *, glslang::pool_allocator<const glslang::TVector<glslang::HlslToken> *>>::_Vector_impl" }
%"struct.std::_Vector_base<const glslang::TVector<glslang::HlslToken> *, glslang::pool_allocator<const glslang::TVector<glslang::HlslToken> *>>::_Vector_impl" = type { %"class.glslang::pool_allocator", %"struct.std::_Vector_base<const glslang::TVector<glslang::HlslToken> *, glslang::pool_allocator<const glslang::TVector<glslang::HlslToken> *>>::_Vector_impl_data" }
%"class.glslang::pool_allocator" = type { ptr }
%"struct.std::_Vector_base<const glslang::TVector<glslang::HlslToken> *, glslang::pool_allocator<const glslang::TVector<glslang::HlslToken> *>>::_Vector_impl_data" = type { ptr, ptr, ptr }
%"class.glslang::TVector.0" = type { %"class.std::vector.1" }
%"class.std::vector.1" = type { %"struct.std::_Vector_base.2" }
%"struct.std::_Vector_base.2" = type { %"struct.std::_Vector_base<int, glslang::pool_allocator<int>>::_Vector_impl" }
%"struct.std::_Vector_base<int, glslang::pool_allocator<int>>::_Vector_impl" = type { %"class.glslang::pool_allocator.3", %"struct.std::_Vector_base<int, glslang::pool_allocator<int>>::_Vector_impl_data" }
%"class.glslang::pool_allocator.3" = type { ptr }
%"struct.std::_Vector_base<int, glslang::pool_allocator<int>>::_Vector_impl_data" = type { ptr, ptr, ptr }
%"class.glslang::TVector.4" = type { %"class.std::vector.5" }
%"class.std::vector.5" = type { %"struct.std::_Vector_base.6" }
%"struct.std::_Vector_base.6" = type { %"struct.std::_Vector_base<glslang::HlslToken, glslang::pool_allocator<glslang::HlslToken>>::_Vector_impl" }
%"struct.std::_Vector_base<glslang::HlslToken, glslang::pool_allocator<glslang::HlslToken>>::_Vector_impl" = type { %"class.glslang::pool_allocator.7", %"struct.std::_Vector_base<glslang::HlslToken, glslang::pool_allocator<glslang::HlslToken>>::_Vector_impl_data" }
%"class.glslang::pool_allocator.7" = type { ptr }
%"struct.std::_Vector_base<glslang::HlslToken, glslang::pool_allocator<glslang::HlslToken>>::_Vector_impl_data" = type { ptr, ptr, ptr }
%"class.__gnu_cxx::__normal_iterator.10" = type { ptr }
%"class.__gnu_cxx::__normal_iterator.12" = type { ptr }

; Function Attrs: mustprogress nounwind uwtable
define linkonce_odr void @_ZN9__gnu_cxx17__normal_iteratorIPPKN7glslang7TVectorINS1_9HlslTokenEEESt6vectorIS6_NS1_14pool_allocatorIS6_EEEEC2ERKS7_(ptr noundef nonnull align 8 dereferenceable(8) %0, ptr noundef nonnull align 8 dereferenceable(8) %1) unnamed_addr #0 comdat align 2 {
  %3 = alloca ptr, align 8
  %4 = alloca ptr, align 8
  store ptr %0, ptr %3, align 8
  store ptr %1, ptr %4, align 8
  %5 = load ptr, ptr %3, align 8
  %6 = getelementptr inbounds %"class.__gnu_cxx::__normal_iterator.10", ptr %5, i32 0, i32 0
  %7 = load ptr, ptr %4, align 8
  %8 = load ptr, ptr %7, align 8
  store ptr %8, ptr %6, align 8
  ret void
}

; Function Attrs: mustprogress nounwind uwtable
define linkonce_odr void @_ZN9__gnu_cxx17__normal_iteratorIPiSt6vectorIiN7glslang14pool_allocatorIiEEEEC2ERKS1_(ptr noundef nonnull align 8 dereferenceable(8) %0, ptr noundef nonnull align 8 dereferenceable(8) %1) unnamed_addr #0 comdat align 2 {
  %3 = alloca ptr, align 8
  %4 = alloca ptr, align 8
  store ptr %0, ptr %3, align 8
  store ptr %1, ptr %4, align 8
  %5 = load ptr, ptr %3, align 8
  %6 = getelementptr inbounds %"class.__gnu_cxx::__normal_iterator.12", ptr %5, i32 0, i32 0
  %7 = load ptr, ptr %4, align 8
  %8 = load ptr, ptr %7, align 8
  store ptr %8, ptr %6, align 8
  ret void
}

; Function Attrs: mustprogress nounwind uwtable
define linkonce_odr noundef nonnull align 8 dereferenceable(8) ptr @_ZNK9__gnu_cxx17__normal_iteratorIPPKN7glslang7TVectorINS1_9HlslTokenEEESt6vectorIS6_NS1_14pool_allocatorIS6_EEEEdeEv(ptr noundef nonnull align 8 dereferenceable(8) %0) #0 comdat align 2 {
  %2 = alloca ptr, align 8
  store ptr %0, ptr %2, align 8
  %3 = load ptr, ptr %2, align 8
  %4 = getelementptr inbounds %"class.__gnu_cxx::__normal_iterator.10", ptr %3, i32 0, i32 0
  %5 = load ptr, ptr %4, align 8
  ret ptr %5
}

; Function Attrs: mustprogress nounwind uwtable
define linkonce_odr ptr @_ZNK9__gnu_cxx17__normal_iteratorIPPKN7glslang7TVectorINS1_9HlslTokenEEESt6vectorIS6_NS1_14pool_allocatorIS6_EEEEmiEl(ptr noundef nonnull align 8 dereferenceable(8) %0, i64 noundef %1) #0 comdat align 2 {
  %3 = alloca %"class.__gnu_cxx::__normal_iterator.10", align 8
  %4 = alloca ptr, align 8
  %5 = alloca i64, align 8
  %6 = alloca ptr, align 8
  store ptr %0, ptr %4, align 8
  store i64 %1, ptr %5, align 8
  %7 = load ptr, ptr %4, align 8
  %8 = getelementptr inbounds %"class.__gnu_cxx::__normal_iterator.10", ptr %7, i32 0, i32 0
  %9 = load ptr, ptr %8, align 8
  %10 = load i64, ptr %5, align 8
  %11 = sub i64 0, %10
  %12 = getelementptr inbounds ptr, ptr %9, i64 %11
  store ptr %12, ptr %6, align 8
  call void @_ZN9__gnu_cxx17__normal_iteratorIPPKN7glslang7TVectorINS1_9HlslTokenEEESt6vectorIS6_NS1_14pool_allocatorIS6_EEEEC2ERKS7_(ptr noundef nonnull align 8 dereferenceable(8) %3, ptr noundef nonnull align 8 dereferenceable(8) %6) #4
  %13 = getelementptr inbounds %"class.__gnu_cxx::__normal_iterator.10", ptr %3, i32 0, i32 0
  %14 = load ptr, ptr %13, align 8
  ret ptr %14
}

; Function Attrs: mustprogress nounwind uwtable
define linkonce_odr ptr @_ZNSt6vectorIPKN7glslang7TVectorINS0_9HlslTokenEEENS0_14pool_allocatorIS5_EEE3endEv(ptr noundef nonnull align 8 dereferenceable(32) %0) #0 comdat align 2 {
  %2 = alloca %"class.__gnu_cxx::__normal_iterator.10", align 8
  %3 = alloca ptr, align 8
  store ptr %0, ptr %3, align 8
  %4 = load ptr, ptr %3, align 8
  %5 = getelementptr inbounds %"struct.std::_Vector_base", ptr %4, i32 0, i32 0
  %6 = getelementptr inbounds i8, ptr %5, i64 8
  %7 = getelementptr inbounds %"struct.std::_Vector_base<const glslang::TVector<glslang::HlslToken> *, glslang::pool_allocator<const glslang::TVector<glslang::HlslToken> *>>::_Vector_impl_data", ptr %6, i32 0, i32 1
  call void @_ZN9__gnu_cxx17__normal_iteratorIPPKN7glslang7TVectorINS1_9HlslTokenEEESt6vectorIS6_NS1_14pool_allocatorIS6_EEEEC2ERKS7_(ptr noundef nonnull align 8 dereferenceable(8) %2, ptr noundef nonnull align 8 dereferenceable(8) %7) #4
  %8 = getelementptr inbounds %"class.__gnu_cxx::__normal_iterator.10", ptr %2, i32 0, i32 0
  %9 = load ptr, ptr %8, align 8
  ret ptr %9
}

; Function Attrs: mustprogress nounwind uwtable
define linkonce_odr noundef nonnull align 4 dereferenceable(4) ptr @_ZNK9__gnu_cxx17__normal_iteratorIPiSt6vectorIiN7glslang14pool_allocatorIiEEEEdeEv(ptr noundef nonnull align 8 dereferenceable(8) %0) #0 comdat align 2 {
  %2 = alloca ptr, align 8
  store ptr %0, ptr %2, align 8
  %3 = load ptr, ptr %2, align 8
  %4 = getelementptr inbounds %"class.__gnu_cxx::__normal_iterator.12", ptr %3, i32 0, i32 0
  %5 = load ptr, ptr %4, align 8
  ret ptr %5
}

; Function Attrs: mustprogress nounwind uwtable
define linkonce_odr ptr @_ZNK9__gnu_cxx17__normal_iteratorIPiSt6vectorIiN7glslang14pool_allocatorIiEEEEmiEl(ptr noundef nonnull align 8 dereferenceable(8) %0, i64 noundef %1) #0 comdat align 2 {
  %3 = alloca %"class.__gnu_cxx::__normal_iterator.12", align 8
  %4 = alloca ptr, align 8
  %5 = alloca i64, align 8
  %6 = alloca ptr, align 8
  store ptr %0, ptr %4, align 8
  store i64 %1, ptr %5, align 8
  %7 = load ptr, ptr %4, align 8
  %8 = getelementptr inbounds %"class.__gnu_cxx::__normal_iterator.12", ptr %7, i32 0, i32 0
  %9 = load ptr, ptr %8, align 8
  %10 = load i64, ptr %5, align 8
  %11 = sub i64 0, %10
  %12 = getelementptr inbounds i32, ptr %9, i64 %11
  store ptr %12, ptr %6, align 8
  call void @_ZN9__gnu_cxx17__normal_iteratorIPiSt6vectorIiN7glslang14pool_allocatorIiEEEEC2ERKS1_(ptr noundef nonnull align 8 dereferenceable(8) %3, ptr noundef nonnull align 8 dereferenceable(8) %6) #4
  %13 = getelementptr inbounds %"class.__gnu_cxx::__normal_iterator.12", ptr %3, i32 0, i32 0
  %14 = load ptr, ptr %13, align 8
  ret ptr %14
}

; Function Attrs: mustprogress nounwind uwtable
define linkonce_odr ptr @_ZNSt6vectorIiN7glslang14pool_allocatorIiEEE3endEv(ptr noundef nonnull align 8 dereferenceable(32) %0) #0 comdat align 2 {
  %2 = alloca %"class.__gnu_cxx::__normal_iterator.12", align 8
  %3 = alloca ptr, align 8
  store ptr %0, ptr %3, align 8
  %4 = load ptr, ptr %3, align 8
  %5 = getelementptr inbounds %"struct.std::_Vector_base.2", ptr %4, i32 0, i32 0
  %6 = getelementptr inbounds i8, ptr %5, i64 8
  %7 = getelementptr inbounds %"struct.std::_Vector_base<int, glslang::pool_allocator<int>>::_Vector_impl_data", ptr %6, i32 0, i32 1
  call void @_ZN9__gnu_cxx17__normal_iteratorIPiSt6vectorIiN7glslang14pool_allocatorIiEEEEC2ERKS1_(ptr noundef nonnull align 8 dereferenceable(8) %2, ptr noundef nonnull align 8 dereferenceable(8) %7) #4
  %8 = getelementptr inbounds %"class.__gnu_cxx::__normal_iterator.12", ptr %2, i32 0, i32 0
  %9 = load ptr, ptr %8, align 8
  ret ptr %9
}

; Function Attrs: mustprogress nounwind uwtable
define linkonce_odr noundef nonnull align 8 dereferenceable(40) ptr @_ZNKSt6vectorIN7glslang9HlslTokenENS0_14pool_allocatorIS1_EEEixEm(ptr noundef nonnull align 8 dereferenceable(32) %0, i64 noundef %1) #0 comdat align 2 {
  %3 = alloca ptr, align 8
  %4 = alloca i64, align 8
  store ptr %0, ptr %3, align 8
  store i64 %1, ptr %4, align 8
  %5 = load ptr, ptr %3, align 8
  %6 = getelementptr inbounds %"struct.std::_Vector_base.6", ptr %5, i32 0, i32 0
  %7 = getelementptr inbounds i8, ptr %6, i64 8
  %8 = getelementptr inbounds %"struct.std::_Vector_base<glslang::HlslToken, glslang::pool_allocator<glslang::HlslToken>>::_Vector_impl_data", ptr %7, i32 0, i32 0
  %9 = load ptr, ptr %8, align 8
  %10 = load i64, ptr %4, align 8
  %11 = getelementptr inbounds %"struct.glslang::HlslToken", ptr %9, i64 %10
  ret ptr %11
}

; Function Attrs: mustprogress nounwind uwtable
define linkonce_odr noundef i64 @_ZNKSt6vectorIN7glslang9HlslTokenENS0_14pool_allocatorIS1_EEE4sizeEv(ptr noundef nonnull align 8 dereferenceable(32) %0) #0 comdat align 2 {
  %2 = alloca ptr, align 8
  store ptr %0, ptr %2, align 8
  %3 = load ptr, ptr %2, align 8
  %4 = getelementptr inbounds %"struct.std::_Vector_base.6", ptr %3, i32 0, i32 0
  %5 = getelementptr inbounds i8, ptr %4, i64 8
  %6 = getelementptr inbounds %"struct.std::_Vector_base<glslang::HlslToken, glslang::pool_allocator<glslang::HlslToken>>::_Vector_impl_data", ptr %5, i32 0, i32 1
  %7 = load ptr, ptr %6, align 8
  %8 = getelementptr inbounds %"struct.std::_Vector_base.6", ptr %3, i32 0, i32 0
  %9 = getelementptr inbounds i8, ptr %8, i64 8
  %10 = getelementptr inbounds %"struct.std::_Vector_base<glslang::HlslToken, glslang::pool_allocator<glslang::HlslToken>>::_Vector_impl_data", ptr %9, i32 0, i32 0
  %11 = load ptr, ptr %10, align 8
  %12 = ptrtoint ptr %7 to i64
  %13 = ptrtoint ptr %11 to i64
  %14 = sub i64 %12, %13
  %15 = sdiv exact i64 %14, 40
  ret i64 %15
}

; Function Attrs: mustprogress nounwind uwtable
define linkonce_odr noundef nonnull align 8 dereferenceable(8) ptr @_ZNSt6vectorIPKN7glslang7TVectorINS0_9HlslTokenEEENS0_14pool_allocatorIS5_EEE4backEv(ptr noundef nonnull align 8 dereferenceable(32) %0) #0 comdat align 2 {
  %2 = alloca ptr, align 8
  %3 = alloca %"class.__gnu_cxx::__normal_iterator.10", align 8
  %4 = alloca %"class.__gnu_cxx::__normal_iterator.10", align 8
  store ptr %0, ptr %2, align 8
  %5 = load ptr, ptr %2, align 8
  %6 = call ptr @_ZNSt6vectorIPKN7glslang7TVectorINS0_9HlslTokenEEENS0_14pool_allocatorIS5_EEE3endEv(ptr noundef nonnull align 8 dereferenceable(32) %5) #4
  %7 = getelementptr inbounds %"class.__gnu_cxx::__normal_iterator.10", ptr %4, i32 0, i32 0
  store ptr %6, ptr %7, align 8
  %8 = call ptr @_ZNK9__gnu_cxx17__normal_iteratorIPPKN7glslang7TVectorINS1_9HlslTokenEEESt6vectorIS6_NS1_14pool_allocatorIS6_EEEEmiEl(ptr noundef nonnull align 8 dereferenceable(8) %4, i64 noundef 1) #4
  %9 = getelementptr inbounds %"class.__gnu_cxx::__normal_iterator.10", ptr %3, i32 0, i32 0
  store ptr %8, ptr %9, align 8
  %10 = call noundef nonnull align 8 dereferenceable(8) ptr @_ZNK9__gnu_cxx17__normal_iteratorIPPKN7glslang7TVectorINS1_9HlslTokenEEESt6vectorIS6_NS1_14pool_allocatorIS6_EEEEdeEv(ptr noundef nonnull align 8 dereferenceable(8) %3) #4
  ret ptr %10
}

; Function Attrs: mustprogress nounwind uwtable
define linkonce_odr noundef nonnull align 4 dereferenceable(4) ptr @_ZNSt6vectorIiN7glslang14pool_allocatorIiEEE4backEv(ptr noundef nonnull align 8 dereferenceable(32) %0) #0 comdat align 2 {
  %2 = alloca ptr, align 8
  %3 = alloca %"class.__gnu_cxx::__normal_iterator.12", align 8
  %4 = alloca %"class.__gnu_cxx::__normal_iterator.12", align 8
  store ptr %0, ptr %2, align 8
  %5 = load ptr, ptr %2, align 8
  %6 = call ptr @_ZNSt6vectorIiN7glslang14pool_allocatorIiEEE3endEv(ptr noundef nonnull align 8 dereferenceable(32) %5) #4
  %7 = getelementptr inbounds %"class.__gnu_cxx::__normal_iterator.12", ptr %4, i32 0, i32 0
  store ptr %6, ptr %7, align 8
  %8 = call ptr @_ZNK9__gnu_cxx17__normal_iteratorIPiSt6vectorIiN7glslang14pool_allocatorIiEEEEmiEl(ptr noundef nonnull align 8 dereferenceable(8) %4, i64 noundef 1) #4
  %9 = getelementptr inbounds %"class.__gnu_cxx::__normal_iterator.12", ptr %3, i32 0, i32 0
  store ptr %8, ptr %9, align 8
  %10 = call noundef nonnull align 4 dereferenceable(4) ptr @_ZNK9__gnu_cxx17__normal_iteratorIPiSt6vectorIiN7glslang14pool_allocatorIiEEEEdeEv(ptr noundef nonnull align 8 dereferenceable(8) %3) #4
  ret ptr %10
}

; Function Attrs: mustprogress nounwind uwtable
define linkonce_odr noundef i64 @_ZNKSt6vectorIPKN7glslang7TVectorINS0_9HlslTokenEEENS0_14pool_allocatorIS5_EEE4sizeEv(ptr noundef nonnull align 8 dereferenceable(32) %0) #0 comdat align 2 {
  %2 = alloca ptr, align 8
  store ptr %0, ptr %2, align 8
  %3 = load ptr, ptr %2, align 8
  %4 = getelementptr inbounds %"struct.std::_Vector_base", ptr %3, i32 0, i32 0
  %5 = getelementptr inbounds i8, ptr %4, i64 8
  %6 = getelementptr inbounds %"struct.std::_Vector_base<const glslang::TVector<glslang::HlslToken> *, glslang::pool_allocator<const glslang::TVector<glslang::HlslToken> *>>::_Vector_impl_data", ptr %5, i32 0, i32 1
  %7 = load ptr, ptr %6, align 8
  %8 = getelementptr inbounds %"struct.std::_Vector_base", ptr %3, i32 0, i32 0
  %9 = getelementptr inbounds i8, ptr %8, i64 8
  %10 = getelementptr inbounds %"struct.std::_Vector_base<const glslang::TVector<glslang::HlslToken> *, glslang::pool_allocator<const glslang::TVector<glslang::HlslToken> *>>::_Vector_impl_data", ptr %9, i32 0, i32 0
  %11 = load ptr, ptr %10, align 8
  %12 = ptrtoint ptr %7 to i64
  %13 = ptrtoint ptr %11 to i64
  %14 = sub i64 %12, %13
  %15 = sdiv exact i64 %14, 8
  ret i64 %15
}

; Function Attrs: mustprogress nounwind uwtable
define void @_ZN7glslang15HlslTokenStream11popPreTokenEv(ptr dead_on_unwind noalias writable sret(%"struct.glslang::HlslToken") align 8 %0, ptr noundef nonnull align 8 dereferenceable(324) %1) #0 align 2 {
  %3 = alloca ptr, align 8
  store ptr %1, ptr %3, align 8
  %4 = load ptr, ptr %3, align 8
  %5 = getelementptr inbounds %"class.glslang::HlslTokenStream", ptr %4, i32 0, i32 6
  %6 = getelementptr inbounds %"class.glslang::HlslTokenStream", ptr %4, i32 0, i32 7
  %7 = load i32, ptr %6, align 8
  %8 = add nsw i32 %7, -1
  store i32 %8, ptr %6, align 8
  %9 = sext i32 %8 to i64
  %10 = getelementptr inbounds [2 x %"struct.glslang::HlslToken"], ptr %5, i64 0, i64 %9
  call void @llvm.memcpy.p0.p0.i64(ptr align 8 %0, ptr align 8 %10, i64 40, i1 false)
  ret void
}

; Function Attrs: mustprogress nounwind uwtable
define void @_ZN7glslang15HlslTokenStream15pushTokenBufferERKNS_9HlslTokenE(ptr noundef nonnull align 8 dereferenceable(324) %0, ptr noundef nonnull align 8 dereferenceable(40) %1) #0 align 2 {
  %3 = alloca ptr, align 8
  %4 = alloca ptr, align 8
  store ptr %0, ptr %3, align 8
  store ptr %1, ptr %4, align 8
  %5 = load ptr, ptr %3, align 8
  %6 = load ptr, ptr %4, align 8
  %7 = getelementptr inbounds %"class.glslang::HlslTokenStream", ptr %5, i32 0, i32 9
  %8 = getelementptr inbounds %"class.glslang::HlslTokenStream", ptr %5, i32 0, i32 10
  %9 = load i32, ptr %8, align 8
  %10 = sext i32 %9 to i64
  %11 = getelementptr inbounds [2 x %"struct.glslang::HlslToken"], ptr %7, i64 0, i64 %10
  call void @llvm.memcpy.p0.p0.i64(ptr align 8 %11, ptr align 8 %6, i64 40, i1 false)
  %12 = getelementptr inbounds %"class.glslang::HlslTokenStream", ptr %5, i32 0, i32 10
  %13 = load i32, ptr %12, align 8
  %14 = add nsw i32 %13, 1
  %15 = srem i32 %14, 2
  %16 = getelementptr inbounds %"class.glslang::HlslTokenStream", ptr %5, i32 0, i32 10
  store i32 %15, ptr %16, align 8
  ret void
}

; Function Attrs: mustprogress nounwind uwtable
define void @_ZN7glslang15HlslTokenStream12advanceTokenEv(ptr noundef nonnull align 8 dereferenceable(324) %0) #0 align 2 {
  %2 = alloca ptr, align 8
  %3 = alloca %"struct.glslang::HlslToken", align 8
  store ptr %0, ptr %2, align 8
  %4 = load ptr, ptr %2, align 8
  %5 = getelementptr inbounds %"class.glslang::HlslTokenStream", ptr %4, i32 0, i32 1
  call void @_ZN7glslang15HlslTokenStream15pushTokenBufferERKNS_9HlslTokenE(ptr noundef nonnull align 8 dereferenceable(324) %4, ptr noundef nonnull align 8 dereferenceable(40) %5)
  %6 = getelementptr inbounds %"class.glslang::HlslTokenStream", ptr %4, i32 0, i32 7
  %7 = load i32, ptr %6, align 8
  %8 = icmp sgt i32 %7, 0
  br i1 %8, label %9, label %11

9:                                                ; preds = %1
  call void @_ZN7glslang15HlslTokenStream11popPreTokenEv(ptr dead_on_unwind writable sret(%"struct.glslang::HlslToken") align 8 %3, ptr noundef nonnull align 8 dereferenceable(324) %4)
  %10 = getelementptr inbounds %"class.glslang::HlslTokenStream", ptr %4, i32 0, i32 1
  call void @llvm.memcpy.p0.p0.i64(ptr align 8 %10, ptr align 8 %3, i64 40, i1 false)
  br label %48

11:                                               ; preds = %1
  %12 = getelementptr inbounds %"class.glslang::HlslTokenStream", ptr %4, i32 0, i32 3
  %13 = call noundef i64 @_ZNKSt6vectorIPKN7glslang7TVectorINS0_9HlslTokenEEENS0_14pool_allocatorIS5_EEE4sizeEv(ptr noundef nonnull align 8 dereferenceable(32) %12) #4
  %14 = icmp eq i64 %13, 0
  br i1 %14, label %15, label %19

15:                                               ; preds = %11
  %16 = getelementptr inbounds %"class.glslang::HlslTokenStream", ptr %4, i32 0, i32 2
  %17 = load ptr, ptr %16, align 8
  %18 = getelementptr inbounds %"class.glslang::HlslTokenStream", ptr %4, i32 0, i32 1
  call void @_ZN7glslang15HlslScanContext8tokenizeERNS_9HlslTokenE(ptr noundef nonnull align 8 dereferenceable(76) %17, ptr noundef nonnull align 8 dereferenceable(40) %18)
  br label %47

19:                                               ; preds = %11
  %20 = getelementptr inbounds %"class.glslang::HlslTokenStream", ptr %4, i32 0, i32 4
  %21 = call noundef nonnull align 4 dereferenceable(4) ptr @_ZNSt6vectorIiN7glslang14pool_allocatorIiEEE4backEv(ptr noundef nonnull align 8 dereferenceable(32) %20) #4
  %22 = load i32, ptr %21, align 4
  %23 = add nsw i32 %22, 1
  store i32 %23, ptr %21, align 4
  %24 = getelementptr inbounds %"class.glslang::HlslTokenStream", ptr %4, i32 0, i32 4
  %25 = call noundef nonnull align 4 dereferenceable(4) ptr @_ZNSt6vectorIiN7glslang14pool_allocatorIiEEE4backEv(ptr noundef nonnull align 8 dereferenceable(32) %24) #4
  %26 = load i32, ptr %25, align 4
  %27 = getelementptr inbounds %"class.glslang::HlslTokenStream", ptr %4, i32 0, i32 3
  %28 = call noundef nonnull align 8 dereferenceable(8) ptr @_ZNSt6vectorIPKN7glslang7TVectorINS0_9HlslTokenEEENS0_14pool_allocatorIS5_EEE4backEv(ptr noundef nonnull align 8 dereferenceable(32) %27) #4
  %29 = load ptr, ptr %28, align 8
  %30 = call noundef i64 @_ZNKSt6vectorIN7glslang9HlslTokenENS0_14pool_allocatorIS1_EEE4sizeEv(ptr noundef nonnull align 8 dereferenceable(32) %29) #4
  %31 = trunc i64 %30 to i32
  %32 = icmp sge i32 %26, %31
  br i1 %32, label %33, label %36

33:                                               ; preds = %19
  %34 = getelementptr inbounds %"class.glslang::HlslTokenStream", ptr %4, i32 0, i32 1
  %35 = getelementptr inbounds %"struct.glslang::HlslToken", ptr %34, i32 0, i32 1
  store i32 0, ptr %35, align 8
  br label %46

36:                                               ; preds = %19
  %37 = getelementptr inbounds %"class.glslang::HlslTokenStream", ptr %4, i32 0, i32 3
  %38 = call noundef nonnull align 8 dereferenceable(8) ptr @_ZNSt6vectorIPKN7glslang7TVectorINS0_9HlslTokenEEENS0_14pool_allocatorIS5_EEE4backEv(ptr noundef nonnull align 8 dereferenceable(32) %37) #4
  %39 = load ptr, ptr %38, align 8
  %40 = getelementptr inbounds %"class.glslang::HlslTokenStream", ptr %4, i32 0, i32 4
  %41 = call noundef nonnull align 4 dereferenceable(4) ptr @_ZNSt6vectorIiN7glslang14pool_allocatorIiEEE4backEv(ptr noundef nonnull align 8 dereferenceable(32) %40) #4
  %42 = load i32, ptr %41, align 4
  %43 = sext i32 %42 to i64
  %44 = call noundef nonnull align 8 dereferenceable(40) ptr @_ZNKSt6vectorIN7glslang9HlslTokenENS0_14pool_allocatorIS1_EEEixEm(ptr noundef nonnull align 8 dereferenceable(32) %39, i64 noundef %43) #4
  %45 = getelementptr inbounds %"class.glslang::HlslTokenStream", ptr %4, i32 0, i32 1
  call void @llvm.memcpy.p0.p0.i64(ptr align 8 %45, ptr align 8 %44, i64 40, i1 false)
  br label %46

46:                                               ; preds = %36, %33
  br label %47

47:                                               ; preds = %46, %15
  br label %48

48:                                               ; preds = %47, %9
  ret void
}