; Function Attrs: mustprogress nounwind uwtable
define void @_ZN7glslang15HlslTokenStream12advanceTokenEv(ptr noundef nonnull align 8 dereferenceable(324) %0) local_unnamed_addr #2 align 2 {
  %2 = getelementptr inbounds i8, ptr %0, i64 8
  %3 = getelementptr inbounds i8, ptr %0, i64 240
  %4 = getelementptr inbounds i8, ptr %0, i64 320
  %5 = load i32, ptr %4, align 8
  %6 = sext i32 %5 to i64
  %7 = getelementptr inbounds [2 x %"struct.glslang::HlslToken"], ptr %3, i64 0, i64 %6
  tail call void @llvm.memcpy.p0.p0.i64(ptr noundef nonnull align 8 dereferenceable(40) %7, ptr noundef nonnull readonly align 8 dereferenceable(40) %2, i64 40, i1 false)
  %8 = load i32, ptr %4, align 8
  %9 = add nsw i32 %8, 1
  %10 = srem i32 %9, 2
  store i32 %10, ptr %4, align 8
  %11 = getelementptr inbounds i8, ptr %0, i64 232
  %12 = load i32, ptr %11, align 8
  %13 = icmp sgt i32 %12, 0
  br i1 %13, label %14, label %19

14:                                               ; preds = %1
  %15 = getelementptr inbounds i8, ptr %0, i64 152
  %16 = add nsw i32 %12, -1
  store i32 %16, ptr %11, align 8, !noalias !8
  %17 = zext nneg i32 %16 to i64
  %18 = getelementptr inbounds [2 x %"struct.glslang::HlslToken"], ptr %15, i64 0, i64 %17
  tail call void @llvm.memcpy.p0.p0.i64(ptr noundef nonnull align 8 dereferenceable(40) %2, ptr noundef nonnull align 8 dereferenceable(40) %18, i64 40, i1 false)
  br label %54

19:                                               ; preds = %1
  %20 = getelementptr inbounds i8, ptr %0, i64 64
  %21 = getelementptr inbounds i8, ptr %0, i64 72
  %22 = load ptr, ptr %21, align 8
  %23 = load ptr, ptr %20, align 8
  %24 = icmp eq ptr %22, %23
  br i1 %24, label %25, label %28

25:                                               ; preds = %19
  %26 = getelementptr inbounds i8, ptr %0, i64 48
  %27 = load ptr, ptr %26, align 8
  tail call void @_ZN7glslang15HlslScanContext8tokenizeERNS_9HlslTokenE(ptr noundef nonnull align 8 dereferenceable(76) %27, ptr noundef nonnull align 8 dereferenceable(40) %2) #9
  br label %54

28:                                               ; preds = %19
  %29 = getelementptr inbounds i8, ptr %0, i64 104
  %30 = load ptr, ptr %29, align 8
  %31 = getelementptr inbounds i8, ptr %30, i64 -4
  %32 = load i32, ptr %31, align 4
  %33 = add nsw i32 %32, 1
  store i32 %33, ptr %31, align 4
  %34 = load ptr, ptr %29, align 8
  %35 = getelementptr inbounds i8, ptr %34, i64 -4
  %36 = load i32, ptr %35, align 4
  %37 = load ptr, ptr %21, align 8
  %38 = getelementptr inbounds i8, ptr %37, i64 -8
  %39 = load ptr, ptr %38, align 8
  %40 = getelementptr inbounds i8, ptr %39, i64 8
  %41 = getelementptr inbounds i8, ptr %39, i64 16
  %42 = load ptr, ptr %41, align 8
  %43 = load ptr, ptr %40, align 8
  %44 = ptrtoint ptr %42 to i64
  %45 = ptrtoint ptr %43 to i64
  %46 = sub i64 %44, %45
  %47 = sdiv exact i64 %46, 40
  %48 = trunc i64 %47 to i32
  %.not = icmp slt i32 %36, %48
  br i1 %.not, label %51, label %49

49:                                               ; preds = %28
  %50 = getelementptr inbounds i8, ptr %0, i64 32
  store i32 0, ptr %50, align 8
  br label %54

51:                                               ; preds = %28
  %52 = sext i32 %36 to i64
  %53 = getelementptr inbounds %"struct.glslang::HlslToken", ptr %43, i64 %52
  tail call void @llvm.memcpy.p0.p0.i64(ptr noundef nonnull align 8 dereferenceable(40) %2, ptr noundef nonnull align 8 dereferenceable(40) %53, i64 40, i1 false)
  br label %54

54:                                               ; preds = %25, %51, %49, %14
  ret void
}